target datalayout = "e-m:e-p270:32:32-p271:32:32-p272:64:64-i64:64-i128:128-f80:128-n8:16:32:64-S128"
target triple = "x86_64-pc-linux-gnu"

%struct.KINMemRec = type { double, ptr, ptr, double, double, i32, i32, i64, i64, i64, i64, i32, i32, i32, i32, i32, i32, i32, i32, i32, double, double, double, double, double, double, double, double, double, i32, double, i64, i64, i64, i64, i64, i64, i64, ptr, ptr, ptr, ptr, ptr, ptr, ptr, ptr, ptr, ptr, ptr, ptr, ptr, ptr, ptr, ptr, ptr, ptr, i64, i32, i32, i64, i64, i64, i64, ptr, ptr, ptr, ptr, i32, ptr, double, double, double, double, double, i32, double, double, double, i32, ptr, ptr, ptr, ptr, ptr, ptr }
%struct._generic_N_Vector = type { ptr, ptr }
%struct._generic_N_Vector_Ops = type { ptr, ptr, ptr, ptr, ptr, ptr, ptr, ptr, ptr, ptr, ptr, ptr, ptr, ptr, ptr, ptr, ptr, ptr, ptr, ptr, ptr, ptr, ptr, ptr, ptr }
%struct.KINDlsMemRec = type { i32, i64, i64, i64, i64, i32, ptr, ptr, ptr, ptr, ptr, ptr, i64, i64, i64 }

@.str = private unnamed_addr constant [8 x i8] c"KINBAND\00", align 1
@.str.1 = private unnamed_addr constant [8 x i8] c"KINBand\00", align 1
@.str.2 = private unnamed_addr constant [23 x i8] c"KINSOL memory is NULL.\00", align 1
@.str.3 = private unnamed_addr constant [48 x i8] c"A required vector operation is not implemented.\00", align 1
@.str.4 = private unnamed_addr constant [25 x i8] c"A memory request failed.\00", align 1

; Function Attrs: nounwind uwtable
define i32 @KINBand(ptr noundef %0, i64 noundef %1, i64 noundef %2, i64 noundef %3) #0 {
  %5 = alloca i32, align 4
  %6 = alloca ptr, align 8
  %7 = alloca i64, align 8
  %8 = alloca i64, align 8
  %9 = alloca i64, align 8
  %10 = alloca ptr, align 8
  %11 = alloca ptr, align 8
  %12 = alloca i32, align 4
  store ptr %0, ptr %6, align 8, !tbaa !3
  store i64 %1, ptr %7, align 8, !tbaa !7
  store i64 %2, ptr %8, align 8, !tbaa !7
  store i64 %3, ptr %9, align 8, !tbaa !7
  call void @llvm.lifetime.start.p0(i64 8, ptr %10) #5
  call void @llvm.lifetime.start.p0(i64 8, ptr %11) #5
  %13 = load ptr, ptr %6, align 8, !tbaa !3
  %14 = icmp eq ptr %13, null
  br i1 %14, label %15, label %16

15:                                               ; preds = %4
  call void (ptr, i32, ptr, ptr, ptr, ...) @KINProcessError(ptr noundef null, i32 noundef -1, ptr noundef @.str, ptr noundef @.str.1, ptr noundef @.str.2)
  store i32 -1, ptr %5, align 4
  store i32 1, ptr %12, align 4
  br label %169

16:                                               ; preds = %4
  %17 = load ptr, ptr %6, align 8, !tbaa !3
  store ptr %17, ptr %10, align 8, !tbaa !9
  %18 = load ptr, ptr %10, align 8, !tbaa !9
  %19 = getelementptr inbounds nuw %struct.KINMemRec, ptr %18, i32 0, i32 46
  %20 = load ptr, ptr %19, align 8, !tbaa !11
  %21 = getelementptr inbounds nuw %struct._generic_N_Vector, ptr %20, i32 0, i32 1
  %22 = load ptr, ptr %21, align 8, !tbaa !19
  %23 = getelementptr inbounds nuw %struct._generic_N_Vector_Ops, ptr %22, i32 0, i32 4
  %24 = load ptr, ptr %23, align 8, !tbaa !22
  %25 = icmp eq ptr %24, null
  br i1 %25, label %26, label %28

26:                                               ; preds = %16
  %27 = load ptr, ptr %10, align 8, !tbaa !9
  call void (ptr, i32, ptr, ptr, ptr, ...) @KINProcessError(ptr noundef %27, i32 noundef -3, ptr noundef @.str, ptr noundef @.str.1, ptr noundef @.str.3)
  store i32 -3, ptr %5, align 4
  store i32 1, ptr %12, align 4
  br label %169

28:                                               ; preds = %16
  %29 = load ptr, ptr %10, align 8, !tbaa !9
  %30 = getelementptr inbounds nuw %struct.KINMemRec, ptr %29, i32 0, i32 66
  %31 = load ptr, ptr %30, align 8, !tbaa !24
  %32 = icmp ne ptr %31, null
  br i1 %32, label %33, label %38

33:                                               ; preds = %28
  %34 = load ptr, ptr %10, align 8, !tbaa !9
  %35 = getelementptr inbounds nuw %struct.KINMemRec, ptr %34, i32 0, i32 66
  %36 = load ptr, ptr %35, align 8, !tbaa !24
  %37 = load ptr, ptr %10, align 8, !tbaa !9
  call void %36(ptr noundef %37)
  br label %38

38:                                               ; preds = %33, %28
  %39 = load ptr, ptr %10, align 8, !tbaa !9
  %40 = getelementptr inbounds nuw %struct.KINMemRec, ptr %39, i32 0, i32 63
  store ptr @kinBandInit, ptr %40, align 8, !tbaa !25
  %41 = load ptr, ptr %10, align 8, !tbaa !9
  %42 = getelementptr inbounds nuw %struct.KINMemRec, ptr %41, i32 0, i32 64
  store ptr @kinBandSetup, ptr %42, align 8, !tbaa !26
  %43 = load ptr, ptr %10, align 8, !tbaa !9
  %44 = getelementptr inbounds nuw %struct.KINMemRec, ptr %43, i32 0, i32 65
  store ptr @kinBandsolve, ptr %44, align 8, !tbaa !27
  %45 = load ptr, ptr %10, align 8, !tbaa !9
  %46 = getelementptr inbounds nuw %struct.KINMemRec, ptr %45, i32 0, i32 66
  store ptr @kinBandFree, ptr %46, align 8, !tbaa !24
  store ptr null, ptr %11, align 8, !tbaa !28
  %47 = call noalias ptr @malloc(i64 noundef 120) #6
  store ptr %47, ptr %11, align 8, !tbaa !28
  %48 = load ptr, ptr %11, align 8, !tbaa !28
  %49 = icmp eq ptr %48, null
  br i1 %49, label %50, label %52

50:                                               ; preds = %38
  %51 = load ptr, ptr %10, align 8, !tbaa !9
  call void (ptr, i32, ptr, ptr, ptr, ...) @KINProcessError(ptr noundef %51, i32 noundef -4, ptr noundef @.str, ptr noundef @.str.1, ptr noundef @.str.4)
  store i32 -4, ptr %5, align 4
  store i32 1, ptr %12, align 4
  br label %169

52:                                               ; preds = %38
  %53 = load ptr, ptr %11, align 8, !tbaa !28
  %54 = getelementptr inbounds nuw %struct.KINDlsMemRec, ptr %53, i32 0, i32 0
  store i32 2, ptr %54, align 8, !tbaa !30
  %55 = load ptr, ptr %11, align 8, !tbaa !28
  %56 = getelementptr inbounds nuw %struct.KINDlsMemRec, ptr %55, i32 0, i32 5
  store i32 1, ptr %56, align 8, !tbaa !35
  %57 = load ptr, ptr %11, align 8, !tbaa !28
  %58 = getelementptr inbounds nuw %struct.KINDlsMemRec, ptr %57, i32 0, i32 7
  store ptr null, ptr %58, align 8, !tbaa !36
  %59 = load ptr, ptr %11, align 8, !tbaa !28
  %60 = getelementptr inbounds nuw %struct.KINDlsMemRec, ptr %59, i32 0, i32 8
  store ptr null, ptr %60, align 8, !tbaa !37
  %61 = load ptr, ptr %11, align 8, !tbaa !28
  %62 = getelementptr inbounds nuw %struct.KINDlsMemRec, ptr %61, i32 0, i32 14
  store i64 0, ptr %62, align 8, !tbaa !38
  %63 = load ptr, ptr %10, align 8, !tbaa !9
  %64 = getelementptr inbounds nuw %struct.KINMemRec, ptr %63, i32 0, i32 13
  store i32 1, ptr %64, align 8, !tbaa !39
  %65 = load i64, ptr %7, align 8, !tbaa !7
  %66 = load ptr, ptr %11, align 8, !tbaa !28
  %67 = getelementptr inbounds nuw %struct.KINDlsMemRec, ptr %66, i32 0, i32 1
  store i64 %65, ptr %67, align 8, !tbaa !40
  %68 = load i64, ptr %9, align 8, !tbaa !7
  %69 = load ptr, ptr %11, align 8, !tbaa !28
  %70 = getelementptr inbounds nuw %struct.KINDlsMemRec, ptr %69, i32 0, i32 2
  store i64 %68, ptr %70, align 8, !tbaa !41
  %71 = load i64, ptr %8, align 8, !tbaa !7
  %72 = load ptr, ptr %11, align 8, !tbaa !28
  %73 = getelementptr inbounds nuw %struct.KINDlsMemRec, ptr %72, i32 0, i32 3
  store i64 %71, ptr %73, align 8, !tbaa !42
  %74 = load ptr, ptr %11, align 8, !tbaa !28
  %75 = getelementptr inbounds nuw %struct.KINDlsMemRec, ptr %74, i32 0, i32 2
  %76 = load i64, ptr %75, align 8, !tbaa !41
  %77 = icmp slt i64 %76, 0
  br i1 %77, label %95, label %78

78:                                               ; preds = %52
  %79 = load ptr, ptr %11, align 8, !tbaa !28
  %80 = getelementptr inbounds nuw %struct.KINDlsMemRec, ptr %79, i32 0, i32 3
  %81 = load i64, ptr %80, align 8, !tbaa !42
  %82 = icmp slt i64 %81, 0
  br i1 %82, label %95, label %83

83:                                               ; preds = %78
  %84 = load ptr, ptr %11, align 8, !tbaa !28
  %85 = getelementptr inbounds nuw %struct.KINDlsMemRec, ptr %84, i32 0, i32 2
  %86 = load i64, ptr %85, align 8, !tbaa !41
  %87 = load i64, ptr %7, align 8, !tbaa !7
  %88 = icmp sge i64 %86, %87
  br i1 %88, label %95, label %89

89:                                               ; preds = %83
  %90 = load ptr, ptr %11, align 8, !tbaa !28
  %91 = getelementptr inbounds nuw %struct.KINDlsMemRec, ptr %90, i32 0, i32 3
  %92 = load i64, ptr %91, align 8, !tbaa !42
  %93 = load i64, ptr %7, align 8, !tbaa !7
  %94 = icmp sge i64 %92, %93
  br i1 %94, label %95, label %98

95:                                               ; preds = %89, %83, %78, %52
  %96 = load ptr, ptr %10, align 8, !tbaa !9
  call void (ptr, i32, ptr, ptr, ptr, ...) @KINProcessError(ptr noundef %96, i32 noundef -4, ptr noundef @.str, ptr noundef @.str.1, ptr noundef @.str.4)
  %97 = load ptr, ptr %11, align 8, !tbaa !28
  call void @free(ptr noundef %97) #5
  store ptr null, ptr %11, align 8, !tbaa !28
  store i32 -3, ptr %5, align 4
  store i32 1, ptr %12, align 4
  br label %169

98:                                               ; preds = %89
  %99 = load i64, ptr %7, align 8, !tbaa !7
  %100 = sub nsw i64 %99, 1
  %101 = load ptr, ptr %11, align 8, !tbaa !28
  %102 = getelementptr inbounds nuw %struct.KINDlsMemRec, ptr %101, i32 0, i32 3
  %103 = load i64, ptr %102, align 8, !tbaa !42
  %104 = load ptr, ptr %11, align 8, !tbaa !28
  %105 = getelementptr inbounds nuw %struct.KINDlsMemRec, ptr %104, i32 0, i32 2
  %106 = load i64, ptr %105, align 8, !tbaa !41
  %107 = add nsw i64 %103, %106
  %108 = icmp slt i64 %100, %107
  br i1 %108, label %109, label %112

109:                                              ; preds = %98
  %110 = load i64, ptr %7, align 8, !tbaa !7
  %111 = sub nsw i64 %110, 1
  br label %120

112:                                              ; preds = %98
  %113 = load ptr, ptr %11, align 8, !tbaa !28
  %114 = getelementptr inbounds nuw %struct.KINDlsMemRec, ptr %113, i32 0, i32 3
  %115 = load i64, ptr %114, align 8, !tbaa !42
  %116 = load ptr, ptr %11, align 8, !tbaa !28
  %117 = getelementptr inbounds nuw %struct.KINDlsMemRec, ptr %116, i32 0, i32 2
  %118 = load i64, ptr %117, align 8, !tbaa !41
  %119 = add nsw i64 %115, %118
  br label %120

120:                                              ; preds = %112, %109
  %121 = phi i64 [ %111, %109 ], [ %119, %112 ]
  %122 = load ptr, ptr %11, align 8, !tbaa !28
  %123 = getelementptr inbounds nuw %struct.KINDlsMemRec, ptr %122, i32 0, i32 4
  store i64 %121, ptr %123, align 8, !tbaa !43
  %124 = load ptr, ptr %11, align 8, !tbaa !28
  %125 = getelementptr inbounds nuw %struct.KINDlsMemRec, ptr %124, i32 0, i32 9
  store ptr null, ptr %125, align 8, !tbaa !44
  %126 = load i64, ptr %7, align 8, !tbaa !7
  %127 = load ptr, ptr %11, align 8, !tbaa !28
  %128 = getelementptr inbounds nuw %struct.KINDlsMemRec, ptr %127, i32 0, i32 3
  %129 = load i64, ptr %128, align 8, !tbaa !42
  %130 = load ptr, ptr %11, align 8, !tbaa !28
  %131 = getelementptr inbounds nuw %struct.KINDlsMemRec, ptr %130, i32 0, i32 2
  %132 = load i64, ptr %131, align 8, !tbaa !41
  %133 = load ptr, ptr %11, align 8, !tbaa !28
  %134 = getelementptr inbounds nuw %struct.KINDlsMemRec, ptr %133, i32 0, i32 4
  %135 = load i64, ptr %134, align 8, !tbaa !43
  %136 = call ptr @NewBandMat(i64 noundef %126, i64 noundef %129, i64 noundef %132, i64 noundef %135)
  %137 = load ptr, ptr %11, align 8, !tbaa !28
  %138 = getelementptr inbounds nuw %struct.KINDlsMemRec, ptr %137, i32 0, i32 9
  store ptr %136, ptr %138, align 8, !tbaa !44
  %139 = load ptr, ptr %11, align 8, !tbaa !28
  %140 = getelementptr inbounds nuw %struct.KINDlsMemRec, ptr %139, i32 0, i32 9
  %141 = load ptr, ptr %140, align 8, !tbaa !44
  %142 = icmp eq ptr %141, null
  br i1 %142, label %143, label %146

143:                                              ; preds = %120
  %144 = load ptr, ptr %10, align 8, !tbaa !9
  call void (ptr, i32, ptr, ptr, ptr, ...) @KINProcessError(ptr noundef %144, i32 noundef -4, ptr noundef @.str, ptr noundef @.str.1, ptr noundef @.str.4)
  %145 = load ptr, ptr %11, align 8, !tbaa !28
  call void @free(ptr noundef %145) #5
  store ptr null, ptr %11, align 8, !tbaa !28
  store i32 -4, ptr %5, align 4
  store i32 1, ptr %12, align 4
  br label %169

146:                                              ; preds = %120
  %147 = load ptr, ptr %11, align 8, !tbaa !28
  %148 = getelementptr inbounds nuw %struct.KINDlsMemRec, ptr %147, i32 0, i32 11
  store ptr null, ptr %148, align 8, !tbaa !45
  %149 = load i64, ptr %7, align 8, !tbaa !7
  %150 = call ptr @NewLintArray(i64 noundef %149)
  %151 = load ptr, ptr %11, align 8, !tbaa !28
  %152 = getelementptr inbounds nuw %struct.KINDlsMemRec, ptr %151, i32 0, i32 11
  store ptr %150, ptr %152, align 8, !tbaa !45
  %153 = load ptr, ptr %11, align 8, !tbaa !28
  %154 = getelementptr inbounds nuw %struct.KINDlsMemRec, ptr %153, i32 0, i32 11
  %155 = load ptr, ptr %154, align 8, !tbaa !45
  %156 = icmp eq ptr %155, null
  br i1 %156, label %157, label %163

157:                                              ; preds = %146
  %158 = load ptr, ptr %10, align 8, !tbaa !9
  call void (ptr, i32, ptr, ptr, ptr, ...) @KINProcessError(ptr noundef %158, i32 noundef -4, ptr noundef @.str, ptr noundef @.str.1, ptr noundef @.str.4)
  %159 = load ptr, ptr %11, align 8, !tbaa !28
  %160 = getelementptr inbounds nuw %struct.KINDlsMemRec, ptr %159, i32 0, i32 9
  %161 = load ptr, ptr %160, align 8, !tbaa !44
  call void @DestroyMat(ptr noundef %161)
  %162 = load ptr, ptr %11, align 8, !tbaa !28
  call void @free(ptr noundef %162) #5
  store ptr null, ptr %11, align 8, !tbaa !28
  store i32 -4, ptr %5, align 4
  store i32 1, ptr %12, align 4
  br label %169

163:                                              ; preds = %146
  %164 = load ptr, ptr %10, align 8, !tbaa !9
  %165 = getelementptr inbounds nuw %struct.KINMemRec, ptr %164, i32 0, i32 67
  store i32 0, ptr %165, align 8, !tbaa !46
  %166 = load ptr, ptr %11, align 8, !tbaa !28
  %167 = load ptr, ptr %10, align 8, !tbaa !9
  %168 = getelementptr inbounds nuw %struct.KINMemRec, ptr %167, i32 0, i32 68
  store ptr %166, ptr %168, align 8, !tbaa !47
  store i32 0, ptr %5, align 4
  store i32 1, ptr %12, align 4
  br label %169

169:                                              ; preds = %163, %157, %143, %95, %50, %26, %15
  call void @llvm.lifetime.end.p0(i64 8, ptr %11) #5
  call void @llvm.lifetime.end.p0(i64 8, ptr %10) #5
  %170 = load i32, ptr %5, align 4
  ret i32 %170
}