; Function Attrs: nounwind uwtable
define range(i32 -4, 1) i32 @KINBand(ptr noundef %0, i64 noundef %1, i64 noundef %2, i64 noundef %3) local_unnamed_addr #0 {
  %5 = icmp eq ptr %0, null
  br i1 %5, label %6, label %7

6:                                                ; preds = %4
  tail call void (ptr, i32, ptr, ptr, ptr, ...) @KINProcessError(ptr noundef null, i32 noundef -1, ptr noundef nonnull @.str, ptr noundef nonnull @.str.1, ptr noundef nonnull @.str.2) #5
  br label %54

7:                                                ; preds = %4
  %8 = getelementptr inbounds nuw i8, ptr %0, i64 328
  %9 = load ptr, ptr %8, align 8, !tbaa !3
  %10 = getelementptr inbounds nuw i8, ptr %9, i64 8
  %11 = load ptr, ptr %10, align 8, !tbaa !15
  %12 = getelementptr inbounds nuw i8, ptr %11, i64 32
  %13 = load ptr, ptr %12, align 8, !tbaa !18
  %14 = icmp eq ptr %13, null
  br i1 %14, label %15, label %16

15:                                               ; preds = %7
  tail call void (ptr, i32, ptr, ptr, ptr, ...) @KINProcessError(ptr noundef nonnull %0, i32 noundef -3, ptr noundef nonnull @.str, ptr noundef nonnull @.str.1, ptr noundef nonnull @.str.3) #5
  br label %54

16:                                               ; preds = %7
  %17 = getelementptr inbounds nuw i8, ptr %0, i64 480
  %18 = load ptr, ptr %17, align 8, !tbaa !20
  %.not = icmp eq ptr %18, null
  br i1 %.not, label %20, label %19

19:                                               ; preds = %16
  tail call void %18(ptr noundef nonnull %0) #5
  br label %20

20:                                               ; preds = %19, %16
  %21 = getelementptr inbounds nuw i8, ptr %0, i64 456
  store ptr @kinBandInit, ptr %21, align 8, !tbaa !21
  %22 = getelementptr inbounds nuw i8, ptr %0, i64 464
  store ptr @kinBandSetup, ptr %22, align 8, !tbaa !22
  %23 = getelementptr inbounds nuw i8, ptr %0, i64 472
  store ptr @kinBandsolve, ptr %23, align 8, !tbaa !23
  store ptr @kinBandFree, ptr %17, align 8, !tbaa !20
  %24 = tail call noalias dereferenceable_or_null(120) ptr @malloc(i64 noundef 120) #6
  %25 = icmp eq ptr %24, null
  br i1 %25, label %26, label %27

26:                                               ; preds = %20
  tail call void (ptr, i32, ptr, ptr, ptr, ...) @KINProcessError(ptr noundef nonnull %0, i32 noundef -4, ptr noundef nonnull @.str, ptr noundef nonnull @.str.1, ptr noundef nonnull @.str.4) #5
  br label %54

27:                                               ; preds = %20
  store i32 2, ptr %24, align 8, !tbaa !24
  %28 = getelementptr inbounds nuw i8, ptr %24, i64 40
  store i32 1, ptr %28, align 8, !tbaa !29
  %29 = getelementptr inbounds nuw i8, ptr %24, i64 56
  %30 = getelementptr inbounds nuw i8, ptr %24, i64 112
  store i64 0, ptr %30, align 8, !tbaa !30
  %31 = getelementptr inbounds nuw i8, ptr %0, i64 88
  tail call void @llvm.memset.p0.i64(ptr noundef nonnull align 8 dereferenceable(16) %29, i8 0, i64 16, i1 false)
  store i32 1, ptr %31, align 8, !tbaa !31
  %32 = getelementptr inbounds nuw i8, ptr %24, i64 8
  store i64 %1, ptr %32, align 8, !tbaa !32
  %33 = getelementptr inbounds nuw i8, ptr %24, i64 16
  store i64 %3, ptr %33, align 8, !tbaa !33
  %34 = getelementptr inbounds nuw i8, ptr %24, i64 24
  store i64 %2, ptr %34, align 8, !tbaa !34
  %35 = or i64 %3, %2
  %or.cond.not72 = icmp sgt i64 %35, -1
  %.not67 = icmp slt i64 %3, %1
  %or.cond70 = and i1 %.not67, %or.cond.not72
  %.not68 = icmp slt i64 %2, %1
  %or.cond71 = and i1 %.not68, %or.cond70
  br i1 %or.cond71, label %37, label %36

36:                                               ; preds = %27
  tail call void (ptr, i32, ptr, ptr, ptr, ...) @KINProcessError(ptr noundef nonnull %0, i32 noundef -4, ptr noundef nonnull @.str, ptr noundef nonnull @.str.1, ptr noundef nonnull @.str.4) #5
  tail call void @free(ptr noundef nonnull %24) #5
  br label %54

37:                                               ; preds = %27
  %38 = add nuw nsw i64 %3, %2
  %.not69 = icmp sgt i64 %1, %38
  %39 = add nsw i64 %1, -1
  %40 = select i1 %.not69, i64 %38, i64 %39
  %41 = getelementptr inbounds nuw i8, ptr %24, i64 32
  store i64 %40, ptr %41, align 8, !tbaa !35
  %42 = getelementptr inbounds nuw i8, ptr %24, i64 72
  %43 = tail call ptr @NewBandMat(i64 noundef %1, i64 noundef %2, i64 noundef %3, i64 noundef %40) #5
  store ptr %43, ptr %42, align 8, !tbaa !36
  %44 = icmp eq ptr %43, null
  br i1 %44, label %45, label %46

45:                                               ; preds = %37
  tail call void (ptr, i32, ptr, ptr, ptr, ...) @KINProcessError(ptr noundef nonnull %0, i32 noundef -4, ptr noundef nonnull @.str, ptr noundef nonnull @.str.1, ptr noundef nonnull @.str.4) #5
  tail call void @free(ptr noundef nonnull %24) #5
  br label %54

46:                                               ; preds = %37
  %47 = getelementptr inbounds nuw i8, ptr %24, i64 88
  %48 = tail call ptr @NewLintArray(i64 noundef %1) #5
  store ptr %48, ptr %47, align 8, !tbaa !37
  %49 = icmp eq ptr %48, null
  br i1 %49, label %50, label %51

50:                                               ; preds = %46
  tail call void (ptr, i32, ptr, ptr, ptr, ...) @KINProcessError(ptr noundef nonnull %0, i32 noundef -4, ptr noundef nonnull @.str, ptr noundef nonnull @.str.1, ptr noundef nonnull @.str.4) #5
  tail call void @DestroyMat(ptr noundef nonnull %43) #5
  tail call void @free(ptr noundef nonnull %24) #5
  br label %54

51:                                               ; preds = %46
  %52 = getelementptr inbounds nuw i8, ptr %0, i64 488
  store i32 0, ptr %52, align 8, !tbaa !38
  %53 = getelementptr inbounds nuw i8, ptr %0, i64 496
  store ptr %24, ptr %53, align 8, !tbaa !39
  br label %54

54:                                               ; preds = %51, %50, %45, %36, %26, %15, %6
  %.0 = phi i32 [ -1, %6 ], [ -3, %15 ], [ -4, %26 ], [ -3, %36 ], [ -4, %45 ], [ -4, %50 ], [ 0, %51 ]
  ret i32 %.0
}